; Function Attrs: mustprogress nounwind uwtable
define hidden void @_ZNK15G1CollectedHeap16print_regions_onEP12outputStream(ptr noundef nonnull align 8 dereferenceable(1488) %0, ptr noundef nonnull %1) local_unnamed_addr #0 align 2 {
  %3 = alloca %class.G1PrintRegionClosure, align 8
  tail call void (ptr, ptr, ...) @_ZN12outputStream8print_crEPKcz(ptr noundef nonnull align 8 dereferenceable(56) %1, ptr noundef nonnull @.str.74) #23
  %4 = getelementptr inbounds i8, ptr %3, i64 8
  store i8 1, ptr %4, align 8
  store ptr getelementptr inbounds inrange(-16, 8) (i8, ptr @_ZTV20G1PrintRegionClosure, i64 16), ptr %3, align 8
  %5 = getelementptr inbounds i8, ptr %3, i64 16
  store ptr %1, ptr %5, align 8
  %6 = getelementptr inbounds i8, ptr %0, i64 392
  call void @_ZNK19G1HeapRegionManager7iterateEP19G1HeapRegionClosure(ptr noundef nonnull align 8 dereferenceable(232) %6, ptr noundef nonnull %3) #23
  ret void
}